target datalayout = "e-m:e-p270:32:32-p271:32:32-p272:64:64-i64:64-i128:128-f80:128-n8:16:32:64-S128"
target triple = "x86_64-pc-linux-gnu"

@ff_sqrt_tab = external constant [256 x i8], align 16
@ff_inverse = external constant [257 x i32], align 16
@ff_log2_tab = external constant [256 x i8], align 16

; Function Attrs: alwaysinline nounwind willreturn memory(none) uwtable
define internal i32 @ff_log2_16bit_c(i32 noundef %0) #5 {
  %2 = alloca i32, align 4
  %3 = alloca i32, align 4
  store i32 %0, ptr %2, align 4, !tbaa !13
  call void @llvm.lifetime.start.p0(i64 4, ptr %3) #14
  store i32 0, ptr %3, align 4, !tbaa !13
  %4 = load i32, ptr %2, align 4, !tbaa !13
  %5 = and i32 %4, 65280
  %6 = icmp ne i32 %5, 0
  br i1 %6, label %7, label %12

7:                                                ; preds = %1
  %8 = load i32, ptr %2, align 4, !tbaa !13
  %9 = lshr i32 %8, 8
  store i32 %9, ptr %2, align 4, !tbaa !13
  %10 = load i32, ptr %3, align 4, !tbaa !13
  %11 = add nsw i32 %10, 8
  store i32 %11, ptr %3, align 4, !tbaa !13
  br label %12

12:                                               ; preds = %7, %1
  %13 = load i32, ptr %2, align 4, !tbaa !13
  %14 = zext i32 %13 to i64
  %15 = getelementptr inbounds nuw [256 x i8], ptr @ff_log2_tab, i64 0, i64 %14
  %16 = load i8, ptr %15, align 1, !tbaa !52
  %17 = zext i8 %16 to i32
  %18 = load i32, ptr %3, align 4, !tbaa !13
  %19 = add nsw i32 %18, %17
  store i32 %19, ptr %3, align 4, !tbaa !13
  %20 = load i32, ptr %3, align 4, !tbaa !13
  call void @llvm.lifetime.end.p0(i64 4, ptr %3) #14
  ret i32 %20
}

; Function Attrs: inlinehint nounwind willreturn memory(none) uwtable
define internal i32 @ff_sqrt(i32 noundef %0) #13 {
  %2 = alloca i32, align 4
  %3 = alloca i32, align 4
  %4 = alloca i32, align 4
  %5 = alloca i32, align 4
  %6 = alloca i32, align 4
  %7 = alloca i32, align 4
  store i32 %0, ptr %3, align 4, !tbaa !13
  call void @llvm.lifetime.start.p0(i64 4, ptr %4) #14
  %8 = load i32, ptr %3, align 4, !tbaa !13
  %9 = icmp ult i32 %8, 255
  br i1 %9, label %10, label %19

10:                                               ; preds = %1
  %11 = load i32, ptr %3, align 4, !tbaa !13
  %12 = add i32 %11, 1
  %13 = zext i32 %12 to i64
  %14 = getelementptr inbounds nuw [256 x i8], ptr @ff_sqrt_tab, i64 0, i64 %13
  %15 = load i8, ptr %14, align 1, !tbaa !52
  %16 = zext i8 %15 to i32
  %17 = sub nsw i32 %16, 1
  %18 = ashr i32 %17, 4
  store i32 %18, ptr %2, align 4
  store i32 1, ptr %5, align 4
  br label %94

19:                                               ; preds = %1
  %20 = load i32, ptr %3, align 4, !tbaa !13
  %21 = icmp ult i32 %20, 4096
  br i1 %21, label %22, label %30

22:                                               ; preds = %19
  %23 = load i32, ptr %3, align 4, !tbaa !13
  %24 = lshr i32 %23, 4
  %25 = zext i32 %24 to i64
  %26 = getelementptr inbounds nuw [256 x i8], ptr @ff_sqrt_tab, i64 0, i64 %25
  %27 = load i8, ptr %26, align 1, !tbaa !52
  %28 = zext i8 %27 to i32
  %29 = ashr i32 %28, 2
  store i32 %29, ptr %4, align 4, !tbaa !13
  br label %84

30:                                               ; preds = %19
  %31 = load i32, ptr %3, align 4, !tbaa !13
  %32 = icmp ult i32 %31, 16384
  br i1 %32, label %33, label %41

33:                                               ; preds = %30
  %34 = load i32, ptr %3, align 4, !tbaa !13
  %35 = lshr i32 %34, 6
  %36 = zext i32 %35 to i64
  %37 = getelementptr inbounds nuw [256 x i8], ptr @ff_sqrt_tab, i64 0, i64 %36
  %38 = load i8, ptr %37, align 1, !tbaa !52
  %39 = zext i8 %38 to i32
  %40 = ashr i32 %39, 1
  store i32 %40, ptr %4, align 4, !tbaa !13
  br label %83

41:                                               ; preds = %30
  %42 = load i32, ptr %3, align 4, !tbaa !13
  %43 = icmp ult i32 %42, 65536
  br i1 %43, label %44, label %51

44:                                               ; preds = %41
  %45 = load i32, ptr %3, align 4, !tbaa !13
  %46 = lshr i32 %45, 8
  %47 = zext i32 %46 to i64
  %48 = getelementptr inbounds nuw [256 x i8], ptr @ff_sqrt_tab, i64 0, i64 %47
  %49 = load i8, ptr %48, align 1, !tbaa !52
  %50 = zext i8 %49 to i32
  store i32 %50, ptr %4, align 4, !tbaa !13
  br label %82

51:                                               ; preds = %41
  call void @llvm.lifetime.start.p0(i64 4, ptr %6) #14
  %52 = load i32, ptr %3, align 4, !tbaa !13
  %53 = lshr i32 %52, 16
  %54 = call i32 @ff_log2_16bit_c(i32 noundef %53) #16
  %55 = ashr i32 %54, 1
  store i32 %55, ptr %6, align 4, !tbaa !13
  call void @llvm.lifetime.start.p0(i64 4, ptr %7) #14
  %56 = load i32, ptr %3, align 4, !tbaa !13
  %57 = load i32, ptr %6, align 4, !tbaa !13
  %58 = add nsw i32 %57, 2
  %59 = lshr i32 %56, %58
  store i32 %59, ptr %7, align 4, !tbaa !13
  %60 = load i32, ptr %7, align 4, !tbaa !13
  %61 = load i32, ptr %6, align 4, !tbaa !13
  %62 = add nsw i32 %61, 8
  %63 = lshr i32 %60, %62
  %64 = zext i32 %63 to i64
  %65 = getelementptr inbounds nuw [256 x i8], ptr @ff_sqrt_tab, i64 0, i64 %64
  %66 = load i8, ptr %65, align 1, !tbaa !52
  %67 = zext i8 %66 to i32
  store i32 %67, ptr %4, align 4, !tbaa !13
  %68 = load i32, ptr %7, align 4, !tbaa !13
  %69 = zext i32 %68 to i64
  %70 = load i32, ptr %4, align 4, !tbaa !13
  %71 = zext i32 %70 to i64
  %72 = getelementptr inbounds nuw [257 x i32], ptr @ff_inverse, i64 0, i64 %71
  %73 = load i32, ptr %72, align 4, !tbaa !13
  %74 = zext i32 %73 to i64
  %75 = mul i64 %69, %74
  %76 = lshr i64 %75, 32
  %77 = trunc i64 %76 to i32
  %78 = load i32, ptr %4, align 4, !tbaa !13
  %79 = load i32, ptr %6, align 4, !tbaa !13
  %80 = shl i32 %78, %79
  %81 = add i32 %77, %80
  store i32 %81, ptr %4, align 4, !tbaa !13
  call void @llvm.lifetime.end.p0(i64 4, ptr %7) #14
  call void @llvm.lifetime.end.p0(i64 4, ptr %6) #14
  br label %82

82:                                               ; preds = %51, %44
  br label %83

83:                                               ; preds = %82, %33
  br label %84

84:                                               ; preds = %83, %22
  br label %85

85:                                               ; preds = %84
  %86 = load i32, ptr %4, align 4, !tbaa !13
  %87 = load i32, ptr %3, align 4, !tbaa !13
  %88 = load i32, ptr %4, align 4, !tbaa !13
  %89 = load i32, ptr %4, align 4, !tbaa !13
  %90 = mul i32 %88, %89
  %91 = icmp ult i32 %87, %90
  %92 = zext i1 %91 to i32
  %93 = sub i32 %86, %92
  store i32 %93, ptr %2, align 4
  store i32 1, ptr %5, align 4
  br label %94

94:                                               ; preds = %85, %10
  call void @llvm.lifetime.end.p0(i64 4, ptr %4) #14
  %95 = load i32, ptr %2, align 4
  ret i32 %95
}

; Function Attrs: nounwind uwtable
define internal void @get_visual_weight(ptr noundef %0, ptr noundef %1, i32 noundef %2) #1 {
  %4 = alloca ptr, align 8
  %5 = alloca ptr, align 8
  %6 = alloca i32, align 4
  %7 = alloca i32, align 4
  %8 = alloca i32, align 4
  %9 = alloca i32, align 4
  %10 = alloca i32, align 4
  %11 = alloca i32, align 4
  %12 = alloca i32, align 4
  %13 = alloca i32, align 4
  %14 = alloca i32, align 4
  store ptr %0, ptr %4, align 8, !tbaa !11
  store ptr %1, ptr %5, align 8, !tbaa !86
  store i32 %2, ptr %6, align 4, !tbaa !13
  call void @llvm.lifetime.start.p0(i64 4, ptr %7) #14
  call void @llvm.lifetime.start.p0(i64 4, ptr %8) #14
  store i32 0, ptr %8, align 4, !tbaa !13
  br label %15

15:                                               ; preds = %118, %3
  %16 = load i32, ptr %8, align 4, !tbaa !13
  %17 = icmp slt i32 %16, 8
  br i1 %17, label %18, label %121

18:                                               ; preds = %15
  store i32 0, ptr %7, align 4, !tbaa !13
  br label %19

19:                                               ; preds = %114, %18
  %20 = load i32, ptr %7, align 4, !tbaa !13
  %21 = icmp slt i32 %20, 8
  br i1 %21, label %22, label %117

22:                                               ; preds = %19
  call void @llvm.lifetime.start.p0(i64 4, ptr %9) #14
  call void @llvm.lifetime.start.p0(i64 4, ptr %10) #14
  call void @llvm.lifetime.start.p0(i64 4, ptr %11) #14
  store i32 0, ptr %11, align 4, !tbaa !13
  call void @llvm.lifetime.start.p0(i64 4, ptr %12) #14
  store i32 0, ptr %12, align 4, !tbaa !13
  call void @llvm.lifetime.start.p0(i64 4, ptr %13) #14
  store i32 0, ptr %13, align 4, !tbaa !13
  %23 = load i32, ptr %8, align 4, !tbaa !13
  %24 = sub nsw i32 %23, 1
  %25 = icmp sgt i32 %24, 0
  br i1 %25, label %26, label %29

26:                                               ; preds = %22
  %27 = load i32, ptr %8, align 4, !tbaa !13
  %28 = sub nsw i32 %27, 1
  br label %30

29:                                               ; preds = %22
  br label %30

30:                                               ; preds = %29, %26
  %31 = phi i32 [ %28, %26 ], [ 0, %29 ]
  store i32 %31, ptr %10, align 4, !tbaa !13
  br label %32

32:                                               ; preds = %91, %30
  %33 = load i32, ptr %10, align 4, !tbaa !13
  %34 = load i32, ptr %8, align 4, !tbaa !13
  %35 = add nsw i32 %34, 2
  %36 = icmp sgt i32 8, %35
  br i1 %36, label %37, label %40

37:                                               ; preds = %32
  %38 = load i32, ptr %8, align 4, !tbaa !13
  %39 = add nsw i32 %38, 2
  br label %41

40:                                               ; preds = %32
  br label %41

41:                                               ; preds = %40, %37
  %42 = phi i32 [ %39, %37 ], [ 8, %40 ]
  %43 = icmp slt i32 %33, %42
  br i1 %43, label %44, label %94

44:                                               ; preds = %41
  %45 = load i32, ptr %7, align 4, !tbaa !13
  %46 = sub nsw i32 %45, 1
  %47 = icmp sgt i32 %46, 0
  br i1 %47, label %48, label %51

48:                                               ; preds = %44
  %49 = load i32, ptr %7, align 4, !tbaa !13
  %50 = sub nsw i32 %49, 1
  br label %52

51:                                               ; preds = %44
  br label %52

52:                                               ; preds = %51, %48
  %53 = phi i32 [ %50, %48 ], [ 0, %51 ]
  store i32 %53, ptr %9, align 4, !tbaa !13
  br label %54

54:                                               ; preds = %87, %52
  %55 = load i32, ptr %9, align 4, !tbaa !13
  %56 = load i32, ptr %7, align 4, !tbaa !13
  %57 = add nsw i32 %56, 2
  %58 = icmp sgt i32 8, %57
  br i1 %58, label %59, label %62

59:                                               ; preds = %54
  %60 = load i32, ptr %7, align 4, !tbaa !13
  %61 = add nsw i32 %60, 2
  br label %63

62:                                               ; preds = %54
  br label %63

63:                                               ; preds = %62, %59
  %64 = phi i32 [ %61, %59 ], [ 8, %62 ]
  %65 = icmp slt i32 %55, %64
  br i1 %65, label %66, label %90

66:                                               ; preds = %63
  call void @llvm.lifetime.start.p0(i64 4, ptr %14) #14
  %67 = load ptr, ptr %5, align 8, !tbaa !86
  %68 = load i32, ptr %9, align 4, !tbaa !13
  %69 = load i32, ptr %10, align 4, !tbaa !13
  %70 = load i32, ptr %6, align 4, !tbaa !13
  %71 = mul nsw i32 %69, %70
  %72 = add nsw i32 %68, %71
  %73 = sext i32 %72 to i64
  %74 = getelementptr inbounds i8, ptr %67, i64 %73
  %75 = load i8, ptr %74, align 1, !tbaa !52
  %76 = zext i8 %75 to i32
  store i32 %76, ptr %14, align 4, !tbaa !13
  %77 = load i32, ptr %14, align 4, !tbaa !13
  %78 = load i32, ptr %11, align 4, !tbaa !13
  %79 = add nsw i32 %78, %77
  store i32 %79, ptr %11, align 4, !tbaa !13
  %80 = load i32, ptr %14, align 4, !tbaa !13
  %81 = load i32, ptr %14, align 4, !tbaa !13
  %82 = mul nsw i32 %80, %81
  %83 = load i32, ptr %12, align 4, !tbaa !13
  %84 = add nsw i32 %83, %82
  store i32 %84, ptr %12, align 4, !tbaa !13
  %85 = load i32, ptr %13, align 4, !tbaa !13
  %86 = add nsw i32 %85, 1
  store i32 %86, ptr %13, align 4, !tbaa !13
  call void @llvm.lifetime.end.p0(i64 4, ptr %14) #14
  br label %87

87:                                               ; preds = %66
  %88 = load i32, ptr %9, align 4, !tbaa !13
  %89 = add nsw i32 %88, 1
  store i32 %89, ptr %9, align 4, !tbaa !13
  br label %54, !llvm.loop !576

90:                                               ; preds = %63
  br label %91

91:                                               ; preds = %90
  %92 = load i32, ptr %10, align 4, !tbaa !13
  %93 = add nsw i32 %92, 1
  store i32 %93, ptr %10, align 4, !tbaa !13
  br label %32, !llvm.loop !577

94:                                               ; preds = %41
  %95 = load i32, ptr %13, align 4, !tbaa !13
  %96 = load i32, ptr %12, align 4, !tbaa !13
  %97 = mul nsw i32 %95, %96
  %98 = load i32, ptr %11, align 4, !tbaa !13
  %99 = load i32, ptr %11, align 4, !tbaa !13
  %100 = mul nsw i32 %98, %99
  %101 = sub nsw i32 %97, %100
  %102 = call i32 @ff_sqrt(i32 noundef %101) #16
  %103 = mul i32 36, %102
  %104 = load i32, ptr %13, align 4, !tbaa !13
  %105 = udiv i32 %103, %104
  %106 = trunc i32 %105 to i16
  %107 = load ptr, ptr %4, align 8, !tbaa !11
  %108 = load i32, ptr %7, align 4, !tbaa !13
  %109 = load i32, ptr %8, align 4, !tbaa !13
  %110 = mul nsw i32 8, %109
  %111 = add nsw i32 %108, %110
  %112 = sext i32 %111 to i64
  %113 = getelementptr inbounds i16, ptr %107, i64 %112
  store i16 %106, ptr %113, align 2, !tbaa !54
  call void @llvm.lifetime.end.p0(i64 4, ptr %13) #14
  call void @llvm.lifetime.end.p0(i64 4, ptr %12) #14
  call void @llvm.lifetime.end.p0(i64 4, ptr %11) #14
  call void @llvm.lifetime.end.p0(i64 4, ptr %10) #14
  call void @llvm.lifetime.end.p0(i64 4, ptr %9) #14
  br label %114

114:                                              ; preds = %94
  %115 = load i32, ptr %7, align 4, !tbaa !13
  %116 = add nsw i32 %115, 1
  store i32 %116, ptr %7, align 4, !tbaa !13
  br label %19, !llvm.loop !578

117:                                              ; preds = %19
  br label %118

118:                                              ; preds = %117
  %119 = load i32, ptr %8, align 4, !tbaa !13
  %120 = add nsw i32 %119, 1
  store i32 %120, ptr %8, align 4, !tbaa !13
  br label %15, !llvm.loop !579

121:                                              ; preds = %15
  call void @llvm.lifetime.end.p0(i64 4, ptr %8) #14
  call void @llvm.lifetime.end.p0(i64 4, ptr %7) #14
  ret void
}