; Function Attrs: nofree norecurse nosync nounwind memory(argmem: readwrite) uwtable
define internal fastcc void @get_visual_weight(ptr noundef nonnull writeonly captures(none) %0, ptr noundef readonly captures(none) %1, i32 noundef %2) unnamed_addr #10 {
  %4 = sext i32 %2 to i64
  br label %.preheader

.preheader:                                       ; preds = %3, %98
  %indvars.iv73 = phi i64 [ 0, %3 ], [ %indvars.iv.next74, %98 ]
  %5 = trunc nuw nsw i64 %indvars.iv73 to i32
  %smax66 = tail call i32 @llvm.smax.i32(i32 %5, i32 1)
  %6 = zext nneg i32 %smax66 to i64
  %7 = add nsw i64 %6, -1
  %8 = tail call i32 @llvm.umin.i32(i32 %5, i32 6)
  %9 = add nuw nsw i32 %8, 2
  %.not = icmp samesign ugt i32 %smax66, %9
  %10 = zext nneg i32 %9 to i64
  %.idx = shl nuw nsw i64 %indvars.iv73, 4
  %invariant.gep79 = getelementptr inbounds nuw i8, ptr %0, i64 %.idx
  br label %11

11:                                               ; preds = %.preheader, %ff_sqrt.exit
  %indvars.iv70 = phi i64 [ 0, %.preheader ], [ %indvars.iv.next71, %ff_sqrt.exit ]
  %12 = trunc nuw nsw i64 %indvars.iv70 to i32
  %smax = tail call i32 @llvm.smax.i32(i32 %12, i32 1)
  %13 = zext nneg i32 %smax to i64
  %14 = add nsw i64 %13, -1
  br i1 %.not, label %._crit_edge53, label %.lr.ph52

.lr.ph52:                                         ; preds = %11
  %15 = tail call i32 @llvm.umin.i32(i32 %12, i32 6)
  %16 = add nuw nsw i32 %15, 2
  %.not61 = icmp samesign ugt i32 %smax, %16
  br i1 %.not61, label %._crit_edge53, label %.lr.ph.us.preheader

.lr.ph.us.preheader:                              ; preds = %.lr.ph52
  %17 = zext nneg i32 %16 to i64
  br label %.lr.ph.us

.lr.ph.us:                                        ; preds = %.lr.ph.us.preheader, %._crit_edge.us
  %indvars.iv67 = phi i64 [ %7, %.lr.ph.us.preheader ], [ %indvars.iv.next68, %._crit_edge.us ]
  %.03350.us = phi i32 [ 0, %.lr.ph.us.preheader ], [ %25, %._crit_edge.us ]
  %.03449.us = phi i32 [ 0, %.lr.ph.us.preheader ], [ %24, %._crit_edge.us ]
  %.03648.us = phi i32 [ 0, %.lr.ph.us.preheader ], [ %22, %._crit_edge.us ]
  %18 = mul nsw i64 %indvars.iv67, %4
  %invariant.gep = getelementptr i8, ptr %1, i64 %18
  br label %19

19:                                               ; preds = %.lr.ph.us, %19
  %indvars.iv = phi i64 [ %14, %.lr.ph.us ], [ %indvars.iv.next, %19 ]
  %.144.us = phi i32 [ %.03350.us, %.lr.ph.us ], [ %25, %19 ]
  %.13543.us = phi i32 [ %.03449.us, %.lr.ph.us ], [ %24, %19 ]
  %.13742.us = phi i32 [ %.03648.us, %.lr.ph.us ], [ %22, %19 ]
  %gep = getelementptr i8, ptr %invariant.gep, i64 %indvars.iv
  %20 = load i8, ptr %gep, align 1, !tbaa !46
  %21 = zext i8 %20 to i32
  %22 = add nsw i32 %.13742.us, %21
  %23 = mul nuw nsw i32 %21, %21
  %24 = add nsw i32 %23, %.13543.us
  %25 = add nsw i32 %.144.us, 1
  %indvars.iv.next = add nuw nsw i64 %indvars.iv, 1
  %26 = icmp samesign ult i64 %indvars.iv.next, %17
  br i1 %26, label %19, label %._crit_edge.us, !llvm.loop !543

._crit_edge.us:                                   ; preds = %19
  %indvars.iv.next68 = add nuw nsw i64 %indvars.iv67, 1
  %27 = icmp samesign ult i64 %indvars.iv.next68, %10
  br i1 %27, label %.lr.ph.us, label %._crit_edge53, !llvm.loop !544

._crit_edge53:                                    ; preds = %._crit_edge.us, %.lr.ph52, %11
  %.036.lcssa = phi i32 [ 0, %11 ], [ 0, %.lr.ph52 ], [ %22, %._crit_edge.us ]
  %.034.lcssa = phi i32 [ 0, %11 ], [ 0, %.lr.ph52 ], [ %24, %._crit_edge.us ]
  %.033.lcssa = phi i32 [ 0, %11 ], [ 0, %.lr.ph52 ], [ %25, %._crit_edge.us ]
  %28 = mul nsw i32 %.033.lcssa, %.034.lcssa
  %29 = mul nsw i32 %.036.lcssa, %.036.lcssa
  %30 = sub nsw i32 %28, %29
  %31 = icmp ult i32 %30, 255
  br i1 %31, label %32, label %40

32:                                               ; preds = %._crit_edge53
  %33 = add nuw nsw i32 %30, 1
  %34 = zext nneg i32 %33 to i64
  %35 = getelementptr inbounds nuw [256 x i8], ptr @ff_sqrt_tab, i64 0, i64 %34
  %36 = load i8, ptr %35, align 1, !tbaa !46
  %37 = zext i8 %36 to i32
  %38 = add nsw i32 %37, -1
  %39 = ashr i32 %38, 4
  br label %ff_sqrt.exit

40:                                               ; preds = %._crit_edge53
  %41 = icmp ult i32 %30, 4096
  br i1 %41, label %42, label %49

42:                                               ; preds = %40
  %43 = lshr i32 %30, 4
  %44 = zext nneg i32 %43 to i64
  %45 = getelementptr inbounds nuw [256 x i8], ptr @ff_sqrt_tab, i64 0, i64 %44
  %46 = load i8, ptr %45, align 1, !tbaa !46
  %47 = lshr i8 %46, 2
  %48 = zext nneg i8 %47 to i32
  br label %91

49:                                               ; preds = %40
  %50 = icmp ult i32 %30, 16384
  br i1 %50, label %51, label %58

51:                                               ; preds = %49
  %52 = lshr i32 %30, 6
  %53 = zext nneg i32 %52 to i64
  %54 = getelementptr inbounds nuw [256 x i8], ptr @ff_sqrt_tab, i64 0, i64 %53
  %55 = load i8, ptr %54, align 1, !tbaa !46
  %56 = lshr i8 %55, 1
  %57 = zext nneg i8 %56 to i32
  br label %91

58:                                               ; preds = %49
  %59 = icmp ult i32 %30, 65536
  br i1 %59, label %60, label %66

60:                                               ; preds = %58
  %61 = lshr i32 %30, 8
  %62 = zext nneg i32 %61 to i64
  %63 = getelementptr inbounds nuw [256 x i8], ptr @ff_sqrt_tab, i64 0, i64 %62
  %64 = load i8, ptr %63, align 1, !tbaa !46
  %65 = zext i8 %64 to i32
  br label %91

66:                                               ; preds = %58
  %.not.i.i = icmp ult i32 %30, 16777216
  %spec.select.i.v.i = select i1 %.not.i.i, i32 16, i32 24
  %spec.select.i.i = lshr i32 %30, %spec.select.i.v.i
  %spec.select7.i.i = select i1 %.not.i.i, i32 0, i32 8
  %67 = zext nneg i32 %spec.select.i.i to i64
  %68 = getelementptr inbounds nuw [256 x i8], ptr @ff_log2_tab, i64 0, i64 %67
  %69 = load i8, ptr %68, align 1, !tbaa !46
  %70 = zext i8 %69 to i32
  %71 = add nuw nsw i32 %spec.select7.i.i, %70
  %72 = lshr i32 %71, 1
  %73 = add nuw nsw i32 %72, 2
  %74 = lshr i32 %30, %73
  %75 = add nuw nsw i32 %72, 8
  %76 = lshr i32 %74, %75
  %77 = zext nneg i32 %76 to i64
  %78 = getelementptr inbounds nuw [256 x i8], ptr @ff_sqrt_tab, i64 0, i64 %77
  %79 = load i8, ptr %78, align 1, !tbaa !46
  %80 = zext i8 %79 to i32
  %81 = zext nneg i32 %74 to i64
  %82 = zext i8 %79 to i64
  %83 = getelementptr inbounds nuw [257 x i32], ptr @ff_inverse, i64 0, i64 %82
  %84 = load i32, ptr %83, align 4, !tbaa !49
  %85 = zext i32 %84 to i64
  %86 = mul nuw nsw i64 %81, %85
  %87 = lshr i64 %86, 32
  %88 = trunc nuw nsw i64 %87 to i32
  %89 = shl i32 %80, %72
  %90 = add i32 %89, %88
  br label %91

91:                                               ; preds = %66, %60, %51, %42
  %.022.i = phi i32 [ %48, %42 ], [ %57, %51 ], [ %65, %60 ], [ %90, %66 ]
  %92 = mul i32 %.022.i, %.022.i
  %93 = icmp ult i32 %30, %92
  %.neg.i = sext i1 %93 to i32
  %94 = add i32 %.022.i, %.neg.i
  br label %ff_sqrt.exit

ff_sqrt.exit:                                     ; preds = %32, %91
  %.0.i = phi i32 [ %39, %32 ], [ %94, %91 ]
  %95 = mul i32 %.0.i, 36
  %96 = udiv i32 %95, %.033.lcssa
  %97 = trunc i32 %96 to i16
  %gep80 = getelementptr inbounds nuw i16, ptr %invariant.gep79, i64 %indvars.iv70
  store i16 %97, ptr %gep80, align 2, !tbaa !52
  %indvars.iv.next71 = add nuw nsw i64 %indvars.iv70, 1
  %exitcond.not = icmp eq i64 %indvars.iv.next71, 8
  br i1 %exitcond.not, label %98, label %11, !llvm.loop !545

98:                                               ; preds = %ff_sqrt.exit
  %indvars.iv.next74 = add nuw nsw i64 %indvars.iv73, 1
  %exitcond76.not = icmp eq i64 %indvars.iv.next74, 8
  br i1 %exitcond76.not, label %99, label %.preheader, !llvm.loop !546

99:                                               ; preds = %98
  ret void
}